(VInstr_scan
p0
ccopy_reg
_reconstructor
p1
(cvp_pack
Ip
p2
c__builtin__
object
p3
Ntp4
Rp5
(dp6
Vprop_count
p7
I0
sVname
p8
g0
sVprop_list
p9
(dp10
sVip_num
p11
I9
sVwid_order
p12
I9
sVrfu_dict
p13
(dp14
sVrfu_list
p15
(lp16
sVrfu_list_0
p17
(lp18
sVrfu_list_1
p19
(lp20
sVvptool_gitrev
p21
V$Id$
p22
sbtp23
.